target datalayout = "e-m:e-p270:32:32-p271:32:32-p272:64:64-i64:64-i128:128-f80:128-n8:16:32:64-S128"
target triple = "x86_64-pc-linux-gnu"

%class.LogTagSet = type { ptr, i64, [5 x i32], [4 x i8], %class.LogOutputList, %class.LogDecorators, ptr }
%class.LogOutputList = type <{ [6 x ptr], i32, [4 x i8] }>
%class.LogDecorators = type { i32 }

@UseCompressedOops = external global i8, align 1
@UseCompressedClassPointers = external global i8, align 1
@.str.151 = private unnamed_addr constant [73 x i8] c"Cannot use CDS heap data. UseG1GC is required for -XX:-UseCompressedOops\00", align 1
@.str.152 = private unnamed_addr constant [92 x i8] c"Cannot use CDS heap data. UseEpsilonGC, UseG1GC, UseSerialGC or UseParallelGC are required.\00", align 1
@UseG1GC = external global i8, align 1
@_ZN16LogTagSetMappingILN6LogTag4typeE14ELS1_0ELS1_0ELS1_0ELS1_0ELS1_0EE7_tagsetE = linkonce_odr hidden global %class.LogTagSet zeroinitializer, comdat, align 8
@_ZN17ArchiveHeapLoader10_is_mappedE = external global i8, align 1

; Function Attrs: mustprogress nounwind uwtable
define linkonce_odr hidden noundef zeroext i1 @_ZNK13LogOutputList8is_levelEN8LogLevel4typeE(ptr noundef nonnull align 8 dereferenceable(52) %0, i32 noundef %1) #1 comdat align 2 {
  %3 = alloca ptr, align 8
  %4 = alloca i32, align 4
  store ptr %0, ptr %3, align 8
  store i32 %1, ptr %4, align 4
  %5 = load ptr, ptr %3, align 8
  %6 = getelementptr inbounds %class.LogOutputList, ptr %5, i32 0, i32 0
  %7 = load i32, ptr %4, align 4
  %8 = zext i32 %7 to i64
  %9 = getelementptr inbounds [6 x ptr], ptr %6, i64 0, i64 %8
  %10 = load volatile ptr, ptr %9, align 8
  %11 = icmp ne ptr %10, null
  ret i1 %11
}

; Function Attrs: mustprogress nounwind uwtable
define linkonce_odr hidden noundef zeroext i1 @_ZNK9LogTagSet8is_levelEN8LogLevel4typeE(ptr noundef nonnull align 8 dereferenceable(112) %0, i32 noundef %1) #1 comdat align 2 {
  %3 = alloca ptr, align 8
  %4 = alloca i32, align 4
  store ptr %0, ptr %3, align 8
  store i32 %1, ptr %4, align 4
  %5 = load ptr, ptr %3, align 8
  %6 = getelementptr inbounds %class.LogTagSet, ptr %5, i32 0, i32 4
  %7 = load i32, ptr %4, align 4
  %8 = call noundef zeroext i1 @_ZNK13LogOutputList8is_levelEN8LogLevel4typeE(ptr noundef nonnull align 8 dereferenceable(52) %6, i32 noundef %7)
  ret i1 %8
}

; Function Attrs: mustprogress nounwind uwtable
define linkonce_odr hidden noundef nonnull align 8 dereferenceable(112) ptr @_ZN16LogTagSetMappingILN6LogTag4typeE14ELS1_0ELS1_0ELS1_0ELS1_0ELS1_0EE6tagsetEv() #1 comdat align 2 {
  ret ptr @_ZN16LogTagSetMappingILN6LogTag4typeE14ELS1_0ELS1_0ELS1_0ELS1_0ELS1_0EE7_tagsetE
}

; Function Attrs: mustprogress nounwind uwtable
define linkonce_odr hidden void @_ZN17ArchiveHeapLoader10set_mappedEv() #1 comdat align 2 {
  store i8 1, ptr @_ZN17ArchiveHeapLoader10_is_mappedE, align 1
  ret void
}

; Function Attrs: mustprogress nounwind uwtable
define linkonce_odr hidden noundef zeroext i1 @_ZN7LogImplILN6LogTag4typeE14ELS1_0ELS1_0ELS1_0ELS1_0ELS1_0EE8is_levelEN8LogLevel4typeE(i32 noundef %0) #1 comdat align 2 {
  %2 = alloca i32, align 4
  store i32 %0, ptr %2, align 4
  %3 = call noundef nonnull align 8 dereferenceable(112) ptr @_ZN16LogTagSetMappingILN6LogTag4typeE14ELS1_0ELS1_0ELS1_0ELS1_0ELS1_0EE6tagsetEv()
  %4 = load i32, ptr %2, align 4
  %5 = call noundef zeroext i1 @_ZNK9LogTagSet8is_levelEN8LogLevel4typeE(ptr noundef nonnull align 8 dereferenceable(112) %3, i32 noundef %4)
  ret i1 %5
}

; Function Attrs: mustprogress nounwind uwtable
define hidden noundef zeroext i1 @_ZN11FileMapInfo15map_heap_regionEv(ptr noundef nonnull align 8 dereferenceable(40) %0) #1 align 2 {
  %2 = alloca i1, align 1
  %3 = alloca ptr, align 8
  store ptr %0, ptr %3, align 8
  %4 = load ptr, ptr %3, align 8
  %5 = call noundef zeroext i1 @_ZN11FileMapInfo20map_heap_region_implEv(ptr noundef nonnull align 8 dereferenceable(40) %4)
  br i1 %5, label %6, label %7

6:                                                ; preds = %1
  call void @_ZN17ArchiveHeapLoader10set_mappedEv()
  store i1 true, ptr %2, align 1
  br label %8

7:                                                ; preds = %1
  store i1 false, ptr %2, align 1
  br label %8

8:                                                ; preds = %7, %6
  %9 = load i1, ptr %2, align 1
  ret i1 %9
}

; Function Attrs: mustprogress nounwind uwtable
define linkonce_odr hidden noundef zeroext i1 @_ZN17ArchiveHeapLoader7can_mapEv() #1 comdat align 2 {
  %1 = load i8, ptr @UseG1GC, align 1
  %2 = trunc i8 %1 to i1
  br i1 %2, label %3, label %6

3:                                                ; preds = %0
  %4 = load i8, ptr @UseCompressedClassPointers, align 1
  %5 = trunc i8 %4 to i1
  br label %6

6:                                                ; preds = %3, %0
  %7 = phi i1 [ false, %0 ], [ %5, %3 ]
  ret i1 %7
}

; Function Attrs: mustprogress nounwind uwtable
define hidden void @_ZN11FileMapInfo23map_or_load_heap_regionEv(ptr noundef nonnull align 8 dereferenceable(40) %0) #1 align 2 {
  %2 = alloca ptr, align 8
  %3 = alloca i8, align 1
  store ptr %0, ptr %2, align 8
  %4 = load ptr, ptr %2, align 8
  store i8 0, ptr %3, align 1
  %5 = call noundef zeroext i1 @_ZN11FileMapInfo19can_use_heap_regionEv(ptr noundef nonnull align 8 dereferenceable(40) %4)
  br i1 %5, label %6, label %34

6:                                                ; preds = %1
  %7 = call noundef zeroext i1 @_ZN17ArchiveHeapLoader7can_mapEv()
  br i1 %7, label %8, label %11

8:                                                ; preds = %6
  %9 = call noundef zeroext i1 @_ZN11FileMapInfo15map_heap_regionEv(ptr noundef nonnull align 8 dereferenceable(40) %4)
  %10 = zext i1 %9 to i8
  store i8 %10, ptr %3, align 1
  br label %33

11:                                               ; preds = %6
  %12 = call noundef zeroext i1 @_ZN17ArchiveHeapLoader8can_loadEv()
  br i1 %12, label %13, label %16

13:                                               ; preds = %11
  %14 = call noundef zeroext i1 @_ZN17ArchiveHeapLoader16load_heap_regionEP11FileMapInfo(ptr noundef %4)
  %15 = zext i1 %14 to i8
  store i8 %15, ptr %3, align 1
  br label %32

16:                                               ; preds = %11
  %17 = load i8, ptr @UseCompressedOops, align 1
  %18 = trunc i8 %17 to i1
  br i1 %18, label %26, label %19

19:                                               ; preds = %16
  %20 = call noundef zeroext i1 @_ZN17ArchiveHeapLoader7can_mapEv()
  br i1 %20, label %26, label %21

21:                                               ; preds = %19
  %22 = call noundef zeroext i1 @_ZN7LogImplILN6LogTag4typeE14ELS1_0ELS1_0ELS1_0ELS1_0ELS1_0EE8is_levelEN8LogLevel4typeE(i32 noundef 3)
  br i1 %22, label %24, label %23

23:                                               ; preds = %21
  br label %25

24:                                               ; preds = %21
  call void (ptr, ...) @_ZN7LogImplILN6LogTag4typeE14ELS1_0ELS1_0ELS1_0ELS1_0ELS1_0EE5writeILN8LogLevel4typeE3EEEvPKcz(ptr noundef @.str.151)
  br label %25

25:                                               ; preds = %24, %23
  br label %31

26:                                               ; preds = %19, %16
  %27 = call noundef zeroext i1 @_ZN7LogImplILN6LogTag4typeE14ELS1_0ELS1_0ELS1_0ELS1_0ELS1_0EE8is_levelEN8LogLevel4typeE(i32 noundef 3)
  br i1 %27, label %29, label %28

28:                                               ; preds = %26
  br label %30

29:                                               ; preds = %26
  call void (ptr, ...) @_ZN7LogImplILN6LogTag4typeE14ELS1_0ELS1_0ELS1_0ELS1_0ELS1_0EE5writeILN8LogLevel4typeE3EEEvPKcz(ptr noundef @.str.152)
  br label %30

30:                                               ; preds = %29, %28
  br label %31

31:                                               ; preds = %30, %25
  br label %32

32:                                               ; preds = %31, %13
  br label %33

33:                                               ; preds = %32, %8
  br label %34

34:                                               ; preds = %33, %1
  %35 = load i8, ptr %3, align 1
  %36 = trunc i8 %35 to i1
  br i1 %36, label %38, label %37

37:                                               ; preds = %34
  call void @_ZN9CDSConfig28stop_using_full_module_graphEPKc(ptr noundef null)
  br label %38

38:                                               ; preds = %37, %34
  ret void
}