; Function Attrs: mustprogress nounwind uwtable
define hidden void @_ZN11FileMapInfo23map_or_load_heap_regionEv(ptr noundef nonnull align 8 dereferenceable(40) %0) local_unnamed_addr #0 align 2 {
  %2 = tail call noundef zeroext i1 @_ZN11FileMapInfo19can_use_heap_regionEv(ptr noundef nonnull align 8 dereferenceable(40) %0)
  br i1 %2, label %3, label %.critedge

3:                                                ; preds = %1
  %4 = load i8, ptr @UseG1GC, align 1
  %5 = trunc i8 %4 to i1
  %6 = load i8, ptr @UseCompressedClassPointers, align 1
  %7 = trunc i8 %6 to i1
  %8 = select i1 %5, i1 %7, i1 false
  br i1 %8, label %9, label %11

9:                                                ; preds = %3
  %10 = tail call noundef zeroext i1 @_ZN11FileMapInfo20map_heap_region_implEv(ptr noundef nonnull readonly align 8 dereferenceable(40) %0)
  br i1 %10, label %_ZN11FileMapInfo15map_heap_regionEv.exit.thread, label %.critedge

_ZN11FileMapInfo15map_heap_regionEv.exit.thread:  ; preds = %9
  store i8 1, ptr @_ZN17ArchiveHeapLoader10_is_mappedE, align 1
  br label %27

11:                                               ; preds = %3
  %12 = tail call noundef zeroext i1 @_ZN17ArchiveHeapLoader8can_loadEv() #25
  br i1 %12, label %_ZN11FileMapInfo15map_heap_regionEv.exit, label %13

13:                                               ; preds = %11
  %14 = load i8, ptr @UseCompressedOops, align 1
  %15 = trunc i8 %14 to i1
  br i1 %15, label %24, label %16

16:                                               ; preds = %13
  %17 = load i8, ptr @UseG1GC, align 1
  %18 = trunc i8 %17 to i1
  %19 = load i8, ptr @UseCompressedClassPointers, align 1
  %20 = trunc i8 %19 to i1
  %21 = select i1 %18, i1 %20, i1 false
  br i1 %21, label %24, label %22

22:                                               ; preds = %16
  %23 = load volatile ptr, ptr getelementptr inbounds (i8, ptr @_ZN16LogTagSetMappingILN6LogTag4typeE14ELS1_0ELS1_0ELS1_0ELS1_0ELS1_0EE7_tagsetE, i64 64), align 8
  %.not = icmp eq ptr %23, null
  br i1 %.not, label %.critedge, label %.critedge.sink.split

24:                                               ; preds = %16, %13
  %25 = load volatile ptr, ptr getelementptr inbounds (i8, ptr @_ZN16LogTagSetMappingILN6LogTag4typeE14ELS1_0ELS1_0ELS1_0ELS1_0ELS1_0EE7_tagsetE, i64 64), align 8
  %.not4 = icmp eq ptr %25, null
  br i1 %.not4, label %.critedge, label %.critedge.sink.split

_ZN11FileMapInfo15map_heap_regionEv.exit:         ; preds = %11
  %26 = tail call noundef zeroext i1 @_ZN17ArchiveHeapLoader16load_heap_regionEP11FileMapInfo(ptr noundef nonnull %0) #25
  br i1 %26, label %27, label %.critedge

.critedge.sink.split:                             ; preds = %24, %22
  %.str.152.sink = phi ptr [ @.str.151, %22 ], [ @.str.152, %24 ]
  tail call void (ptr, ...) @_ZN7LogImplILN6LogTag4typeE14ELS1_0ELS1_0ELS1_0ELS1_0ELS1_0EE5writeILN8LogLevel4typeE3EEEvPKcz(ptr noundef nonnull %.str.152.sink)
  br label %.critedge

.critedge:                                        ; preds = %.critedge.sink.split, %9, %24, %22, %1, %_ZN11FileMapInfo15map_heap_regionEv.exit
  tail call void @_ZN9CDSConfig28stop_using_full_module_graphEPKc(ptr noundef null) #25
  br label %27

27:                                               ; preds = %_ZN11FileMapInfo15map_heap_regionEv.exit.thread, %.critedge, %_ZN11FileMapInfo15map_heap_regionEv.exit
  ret void
}